target datalayout = "e-m:e-p270:32:32-p271:32:32-p272:64:64-i64:64-i128:128-f80:128-n8:16:32:64-S128"
target triple = "x86_64-pc-linux-gnu"

%struct.Curl_addrinfo = type { i32, i32, i32, i32, i32, ptr, ptr, ptr }
%struct.sockaddr_in = type { i16, i16, %struct.in_addr, [8 x i8] }
%struct.in_addr = type { i32 }
%struct.sockaddr_in6 = type { i16, i16, i32, %struct.in6_addr, i32 }
%struct.in6_addr = type { %union.anon }
%union.anon = type { [4 x i32] }
%struct.Curl_easy = type { i32, i64, ptr, ptr, ptr, %struct.Curl_llist_element, %struct.Curl_llist_element, i32, i32, %struct.Curl_message, %struct.easy_pollset, %struct.Names, ptr, ptr, ptr, %struct.SingleRequest, %struct.UserDefined, ptr, ptr, %struct.Progress, %struct.UrlState, ptr, %struct.PureInfo, %struct.curl_tlssessioninfo }
%struct.Curl_llist_element = type { ptr, ptr, ptr }
%struct.Curl_message = type { %struct.Curl_llist_element, %struct.CURLMsg }
%struct.CURLMsg = type { i32, ptr, %union.anon.0 }
%union.anon.0 = type { ptr }
%struct.easy_pollset = type { [5 x i32], i32, [5 x i8] }
%struct.Names = type { ptr, i32 }
%struct.SingleRequest = type <{ i64, i64, i64, i64, i64, %struct.curltime, i32, i32, i32, i32, i64, i32, i32, %struct.curltime, i32, i32, ptr, i64, i64, ptr, ptr, i64, ptr, %union.anon.1, ptr, [2 x i8], i8, i16, [3 x i8] }>
%struct.curltime = type { i64, i32 }
%union.anon.1 = type { ptr }
%struct.UserDefined = type <{ ptr, ptr, ptr, ptr, ptr, ptr, i16, [6 x i8], i64, i64, i64, ptr, ptr, i64, i16, i16, [4 x i8], ptr, ptr, ptr, ptr, ptr, ptr, ptr, ptr, ptr, ptr, ptr, ptr, ptr, ptr, ptr, ptr, ptr, ptr, ptr, ptr, ptr, ptr, ptr, i32, i32, i32, i32, i64, i64, i64, i64, i64, i64, i64, i64, ptr, ptr, %struct.curl_mimepart, ptr, ptr, i64, i8, i8, i8, [5 x i8], %struct.ssl_config_data, %struct.ssl_config_data, ptr, i16, i8, i8, [4 x i8], %struct.ssl_general_config, i32, i32, i32, [4 x i8], ptr, ptr, i8, [7 x i8], i64, i8, i8, i8, i8, i32, ptr, ptr, ptr, i8, i8, [2 x i8], i32, [80 x ptr], [8 x ptr], i32, i32, i32, [4 x i8], ptr, ptr, ptr, ptr, ptr, i8, [3 x i8], i32, i32, [4 x i8], i64, %struct.Curl_data_priority, ptr, ptr, i64, ptr, ptr, ptr, ptr, ptr, i8, [3 x i8], i32, i8, i8, i56, [6 x i8] }>
%struct.curl_mimepart = type { ptr, ptr, i32, i32, ptr, ptr, ptr, ptr, ptr, ptr, ptr, ptr, ptr, ptr, ptr, i64, %struct.mime_state, ptr, %struct.mime_encoder_state, i64 }
%struct.mime_state = type { i32, ptr, i64 }
%struct.mime_encoder_state = type { i64, i64, i64, [256 x i8] }
%struct.ssl_config_data = type { %struct.ssl_primary_config, i64, ptr, ptr, ptr, ptr, ptr, ptr, ptr, i8 }
%struct.ssl_primary_config = type { ptr, ptr, ptr, ptr, ptr, ptr, ptr, ptr, ptr, ptr, ptr, ptr, i8, i32, i8, i8 }
%struct.ssl_general_config = type { i64, i32 }
%struct.Curl_data_priority = type { ptr, ptr, i32, i8 }
%struct.Progress = type { i64, i64, i64, i64, i64, i64, i32, i32, i64, i64, i64, i64, i64, i64, i64, i64, i64, i64, %struct.curltime, %struct.curltime, %struct.curltime, %struct.curltime, %struct.curltime, i64, %struct.curltime, i64, [6 x i64], [6 x %struct.curltime], i32, i8 }
%struct.UrlState = type { ptr, %struct.curltime, i64, i64, %struct.dynbuf, ptr, ptr, ptr, i64, ptr, i32, i32, i32, ptr, i64, [3 x %struct.tempbuf], i32, i32, ptr, i64, i32, ptr, %struct.digestdata, %struct.digestdata, %struct.auth, %struct.auth, %struct.Curl_async, ptr, %struct.curltime, %struct.Curl_tree, %struct.Curl_llist, [15 x %struct.time_node], ptr, i8, i64, ptr, i64, i64, %struct.Curl_data_priority, ptr, ptr, ptr, %struct.urlpieces, ptr, ptr, ptr, ptr, ptr, i64, %struct.dynbuf, %struct.Curl_llist, [2 x %struct.curl_header], ptr, i32, ptr, %struct.dynamically_allocated_data, i8, i8, i8, i8, i24 }
%struct.tempbuf = type { %struct.dynbuf, i32, i8 }
%struct.digestdata = type { ptr, ptr, ptr, ptr, ptr, ptr, i32, i8, i8 }
%struct.auth = type { i64, i64, i64, i8 }
%struct.Curl_async = type { ptr, ptr, ptr, ptr, i32, i32, i8 }
%struct.Curl_tree = type { ptr, ptr, ptr, ptr, %struct.curltime, ptr }
%struct.time_node = type { %struct.Curl_llist_element, %struct.curltime, i32 }
%struct.urlpieces = type { ptr, ptr, ptr, ptr, ptr, ptr, ptr, ptr }
%struct.dynbuf = type { ptr, i64, i64, i64 }
%struct.Curl_llist = type { ptr, ptr, ptr, i64 }
%struct.curl_header = type { ptr, ptr, i64, i64, i32, ptr }
%struct.dynamically_allocated_data = type { ptr, ptr, ptr, ptr, ptr, ptr, ptr, ptr, ptr, ptr, ptr, ptr, ptr, ptr }
%struct.PureInfo = type { i32, i32, i32, i64, i64, i64, i64, i64, ptr, ptr, i64, i32, [46 x i8], i32, i32, [46 x i8], i32, ptr, i32, %struct.curl_certinfo, i32, i8 }
%struct.curl_certinfo = type { i32, ptr }
%struct.curl_tlssessioninfo = type { i32, ptr }
%struct.Curl_dns_entry = type { ptr, i64, i64, i32, [1 x i8] }

@.str.25 = private unnamed_addr constant [25 x i8] c"Host %s:%d was resolved.\00", align 1
@.str.26 = private unnamed_addr constant [7 x i8] c"(none)\00", align 1
@.str.27 = private unnamed_addr constant [3 x i8] c", \00", align 1
@.str.28 = private unnamed_addr constant [24 x i8] c"too many IP, can't show\00", align 1
@.str.29 = private unnamed_addr constant [9 x i8] c"IPv6: %s\00", align 1
@.str.30 = private unnamed_addr constant [9 x i8] c"IPv4: %s\00", align 1

; Function Attrs: nounwind uwtable
define dso_local void @Curl_printable_address(ptr noundef %0, ptr noundef %1, i64 noundef %2) #0 {
  %4 = alloca ptr, align 8
  %5 = alloca ptr, align 8
  %6 = alloca i64, align 8
  %7 = alloca ptr, align 8
  %8 = alloca ptr, align 8
  %9 = alloca ptr, align 8
  %10 = alloca ptr, align 8
  store ptr %0, ptr %4, align 8
  store ptr %1, ptr %5, align 8
  store i64 %2, ptr %6, align 8
  br label %11

11:                                               ; preds = %3
  br label %12

12:                                               ; preds = %11
  %13 = load ptr, ptr %5, align 8
  %14 = getelementptr inbounds i8, ptr %13, i64 0
  store i8 0, ptr %14, align 1
  %15 = load ptr, ptr %4, align 8
  %16 = getelementptr inbounds %struct.Curl_addrinfo, ptr %15, i32 0, i32 1
  %17 = load i32, ptr %16, align 4
  switch i32 %17, label %46 [
    i32 2, label %18
    i32 10, label %32
  ]

18:                                               ; preds = %12
  %19 = load ptr, ptr %4, align 8
  %20 = getelementptr inbounds %struct.Curl_addrinfo, ptr %19, i32 0, i32 6
  %21 = load ptr, ptr %20, align 8
  store ptr %21, ptr %7, align 8
  %22 = load ptr, ptr %7, align 8
  %23 = getelementptr inbounds %struct.sockaddr_in, ptr %22, i32 0, i32 2
  store ptr %23, ptr %8, align 8
  %24 = load ptr, ptr %4, align 8
  %25 = getelementptr inbounds %struct.Curl_addrinfo, ptr %24, i32 0, i32 1
  %26 = load i32, ptr %25, align 4
  %27 = load ptr, ptr %8, align 8
  %28 = load ptr, ptr %5, align 8
  %29 = load i64, ptr %6, align 8
  %30 = trunc i64 %29 to i32
  %31 = call ptr @inet_ntop(i32 noundef %26, ptr noundef %27, ptr noundef %28, i32 noundef %30) #7
  br label %47

32:                                               ; preds = %12
  %33 = load ptr, ptr %4, align 8
  %34 = getelementptr inbounds %struct.Curl_addrinfo, ptr %33, i32 0, i32 6
  %35 = load ptr, ptr %34, align 8
  store ptr %35, ptr %9, align 8
  %36 = load ptr, ptr %9, align 8
  %37 = getelementptr inbounds %struct.sockaddr_in6, ptr %36, i32 0, i32 3
  store ptr %37, ptr %10, align 8
  %38 = load ptr, ptr %4, align 8
  %39 = getelementptr inbounds %struct.Curl_addrinfo, ptr %38, i32 0, i32 1
  %40 = load i32, ptr %39, align 4
  %41 = load ptr, ptr %10, align 8
  %42 = load ptr, ptr %5, align 8
  %43 = load i64, ptr %6, align 8
  %44 = trunc i64 %43 to i32
  %45 = call ptr @inet_ntop(i32 noundef %40, ptr noundef %41, ptr noundef %42, i32 noundef %44) #7
  br label %47

46:                                               ; preds = %12
  br label %47

47:                                               ; preds = %46, %32, %18
  ret void
}

; Function Attrs: nounwind uwtable
define dso_local zeroext i1 @Curl_host_is_ipnum(ptr noundef %0) #0 {
  %2 = alloca i1, align 1
  %3 = alloca ptr, align 8
  %4 = alloca %struct.in_addr, align 4
  %5 = alloca %struct.in6_addr, align 4
  store ptr %0, ptr %3, align 8
  %6 = load ptr, ptr %3, align 8
  %7 = call i32 @inet_pton(i32 noundef 2, ptr noundef %6, ptr noundef %4) #7
  %8 = icmp sgt i32 %7, 0
  br i1 %8, label %13, label %9

9:                                                ; preds = %1
  %10 = load ptr, ptr %3, align 8
  %11 = call i32 @inet_pton(i32 noundef 10, ptr noundef %10, ptr noundef %5) #7
  %12 = icmp sgt i32 %11, 0
  br i1 %12, label %13, label %14

13:                                               ; preds = %9, %1
  store i1 true, ptr %2, align 1
  br label %15

14:                                               ; preds = %9
  store i1 false, ptr %2, align 1
  br label %15

15:                                               ; preds = %14, %13
  %16 = load i1, ptr %2, align 1
  ret i1 %16
}

; Function Attrs: nounwind uwtable
define internal void @show_resolve_info(ptr noundef %0, ptr noundef %1) #0 {
  %3 = alloca ptr, align 8
  %4 = alloca ptr, align 8
  %5 = alloca ptr, align 8
  %6 = alloca i32, align 4
  %7 = alloca [2 x %struct.dynbuf], align 16
  %8 = alloca [46 x i8], align 16
  %9 = alloca ptr, align 8
  store ptr %0, ptr %3, align 8
  store ptr %1, ptr %4, align 8
  store i32 0, ptr %6, align 4
  br label %10

10:                                               ; preds = %2
  br label %11

11:                                               ; preds = %10
  br label %12

12:                                               ; preds = %11
  br label %13

13:                                               ; preds = %12
  %14 = load ptr, ptr %3, align 8
  %15 = getelementptr inbounds %struct.Curl_easy, ptr %14, i32 0, i32 16
  %16 = getelementptr inbounds %struct.UserDefined, ptr %15, i32 0, i32 122
  %17 = load i64, ptr %16, align 2
  %18 = lshr i64 %17, 28
  %19 = and i64 %18, 1
  %20 = trunc i64 %19 to i32
  %21 = icmp ne i32 %20, 0
  br i1 %21, label %22, label %33

22:                                               ; preds = %13
  %23 = load ptr, ptr %4, align 8
  %24 = getelementptr inbounds %struct.Curl_dns_entry, ptr %23, i32 0, i32 4
  %25 = getelementptr inbounds [1 x i8], ptr %24, i64 0, i64 0
  %26 = load i8, ptr %25, align 4
  %27 = icmp ne i8 %26, 0
  br i1 %27, label %28, label %33

28:                                               ; preds = %22
  %29 = load ptr, ptr %4, align 8
  %30 = getelementptr inbounds %struct.Curl_dns_entry, ptr %29, i32 0, i32 4
  %31 = getelementptr inbounds [1 x i8], ptr %30, i64 0, i64 0
  %32 = call zeroext i1 @Curl_host_is_ipnum(ptr noundef %31)
  br i1 %32, label %33, label %34

33:                                               ; preds = %28, %22, %13
  br label %187

34:                                               ; preds = %28
  %35 = load ptr, ptr %4, align 8
  %36 = getelementptr inbounds %struct.Curl_dns_entry, ptr %35, i32 0, i32 0
  %37 = load ptr, ptr %36, align 8
  store ptr %37, ptr %5, align 8
  br label %38

38:                                               ; preds = %34
  %39 = load ptr, ptr %3, align 8
  %40 = icmp ne ptr %39, null
  br i1 %40, label %41, label %68

41:                                               ; preds = %38
  %42 = load ptr, ptr %3, align 8
  %43 = getelementptr inbounds %struct.Curl_easy, ptr %42, i32 0, i32 16
  %44 = getelementptr inbounds %struct.UserDefined, ptr %43, i32 0, i32 122
  %45 = load i64, ptr %44, align 2
  %46 = lshr i64 %45, 28
  %47 = and i64 %46, 1
  %48 = trunc i64 %47 to i32
  %49 = icmp ne i32 %48, 0
  br i1 %49, label %50, label %68

50:                                               ; preds = %41
  %51 = load ptr, ptr %3, align 8
  %52 = load ptr, ptr %4, align 8
  %53 = getelementptr inbounds %struct.Curl_dns_entry, ptr %52, i32 0, i32 4
  %54 = getelementptr inbounds [1 x i8], ptr %53, i64 0, i64 0
  %55 = load i8, ptr %54, align 4
  %56 = sext i8 %55 to i32
  %57 = icmp ne i32 %56, 0
  br i1 %57, label %58, label %62

58:                                               ; preds = %50
  %59 = load ptr, ptr %4, align 8
  %60 = getelementptr inbounds %struct.Curl_dns_entry, ptr %59, i32 0, i32 4
  %61 = getelementptr inbounds [1 x i8], ptr %60, i64 0, i64 0
  br label %63

62:                                               ; preds = %50
  br label %63

63:                                               ; preds = %62, %58
  %64 = phi ptr [ %61, %58 ], [ @.str.26, %62 ]
  %65 = load ptr, ptr %4, align 8
  %66 = getelementptr inbounds %struct.Curl_dns_entry, ptr %65, i32 0, i32 3
  %67 = load i32, ptr %66, align 8
  call void (ptr, ptr, ...) @Curl_infof(ptr noundef %51, ptr noundef @.str.25, ptr noundef %64, i32 noundef %67)
  br label %68

68:                                               ; preds = %63, %41, %38
  br label %69

69:                                               ; preds = %68
  %70 = getelementptr inbounds [2 x %struct.dynbuf], ptr %7, i64 0, i64 0
  call void @Curl_dyn_init(ptr noundef %70, i64 noundef 1024)
  %71 = getelementptr inbounds [2 x %struct.dynbuf], ptr %7, i64 0, i64 1
  call void @Curl_dyn_init(ptr noundef %71, i64 noundef 1024)
  br label %72

72:                                               ; preds = %129, %69
  %73 = load ptr, ptr %5, align 8
  %74 = icmp ne ptr %73, null
  br i1 %74, label %75, label %133

75:                                               ; preds = %72
  %76 = load ptr, ptr %5, align 8
  %77 = getelementptr inbounds %struct.Curl_addrinfo, ptr %76, i32 0, i32 1
  %78 = load i32, ptr %77, align 4
  %79 = icmp eq i32 %78, 10
  br i1 %79, label %85, label %80

80:                                               ; preds = %75
  %81 = load ptr, ptr %5, align 8
  %82 = getelementptr inbounds %struct.Curl_addrinfo, ptr %81, i32 0, i32 1
  %83 = load i32, ptr %82, align 4
  %84 = icmp eq i32 %83, 2
  br i1 %84, label %85, label %129

85:                                               ; preds = %80, %75
  %86 = load ptr, ptr %5, align 8
  %87 = getelementptr inbounds %struct.Curl_addrinfo, ptr %86, i32 0, i32 1
  %88 = load i32, ptr %87, align 4
  %89 = icmp ne i32 %88, 2
  %90 = zext i1 %89 to i32
  %91 = sext i32 %90 to i64
  %92 = getelementptr inbounds [2 x %struct.dynbuf], ptr %7, i64 0, i64 %91
  store ptr %92, ptr %9, align 8
  %93 = load ptr, ptr %5, align 8
  %94 = getelementptr inbounds [46 x i8], ptr %8, i64 0, i64 0
  call void @Curl_printable_address(ptr noundef %93, ptr noundef %94, i64 noundef 46)
  %95 = load ptr, ptr %9, align 8
  %96 = call i64 @Curl_dyn_len(ptr noundef %95)
  %97 = icmp ne i64 %96, 0
  br i1 %97, label %98, label %101

98:                                               ; preds = %85
  %99 = load ptr, ptr %9, align 8
  %100 = call i32 @Curl_dyn_addn(ptr noundef %99, ptr noundef @.str.27, i64 noundef 2)
  store i32 %100, ptr %6, align 4
  br label %101

101:                                              ; preds = %98, %85
  %102 = load i32, ptr %6, align 4
  %103 = icmp ne i32 %102, 0
  br i1 %103, label %108, label %104

104:                                              ; preds = %101
  %105 = load ptr, ptr %9, align 8
  %106 = getelementptr inbounds [46 x i8], ptr %8, i64 0, i64 0
  %107 = call i32 @Curl_dyn_add(ptr noundef %105, ptr noundef %106)
  store i32 %107, ptr %6, align 4
  br label %108

108:                                              ; preds = %104, %101
  %109 = load i32, ptr %6, align 4
  %110 = icmp ne i32 %109, 0
  br i1 %110, label %111, label %128

111:                                              ; preds = %108
  br label %112

112:                                              ; preds = %111
  %113 = load ptr, ptr %3, align 8
  %114 = icmp ne ptr %113, null
  br i1 %114, label %115, label %126

115:                                              ; preds = %112
  %116 = load ptr, ptr %3, align 8
  %117 = getelementptr inbounds %struct.Curl_easy, ptr %116, i32 0, i32 16
  %118 = getelementptr inbounds %struct.UserDefined, ptr %117, i32 0, i32 122
  %119 = load i64, ptr %118, align 2
  %120 = lshr i64 %119, 28
  %121 = and i64 %120, 1
  %122 = trunc i64 %121 to i32
  %123 = icmp ne i32 %122, 0
  br i1 %123, label %124, label %126

124:                                              ; preds = %115
  %125 = load ptr, ptr %3, align 8
  call void (ptr, ptr, ...) @Curl_infof(ptr noundef %125, ptr noundef @.str.28)
  br label %126

126:                                              ; preds = %124, %115, %112
  br label %127

127:                                              ; preds = %126
  br label %184

128:                                              ; preds = %108
  br label %129

129:                                              ; preds = %128, %80
  %130 = load ptr, ptr %5, align 8
  %131 = getelementptr inbounds %struct.Curl_addrinfo, ptr %130, i32 0, i32 7
  %132 = load ptr, ptr %131, align 8
  store ptr %132, ptr %5, align 8
  br label %72, !llvm.loop !12

133:                                              ; preds = %72
  br label %134

134:                                              ; preds = %133
  %135 = load ptr, ptr %3, align 8
  %136 = icmp ne ptr %135, null
  br i1 %136, label %137, label %157

137:                                              ; preds = %134
  %138 = load ptr, ptr %3, align 8
  %139 = getelementptr inbounds %struct.Curl_easy, ptr %138, i32 0, i32 16
  %140 = getelementptr inbounds %struct.UserDefined, ptr %139, i32 0, i32 122
  %141 = load i64, ptr %140, align 2
  %142 = lshr i64 %141, 28
  %143 = and i64 %142, 1
  %144 = trunc i64 %143 to i32
  %145 = icmp ne i32 %144, 0
  br i1 %145, label %146, label %157

146:                                              ; preds = %137
  %147 = load ptr, ptr %3, align 8
  %148 = getelementptr inbounds [2 x %struct.dynbuf], ptr %7, i64 0, i64 1
  %149 = call i64 @Curl_dyn_len(ptr noundef %148)
  %150 = icmp ne i64 %149, 0
  br i1 %150, label %151, label %154

151:                                              ; preds = %146
  %152 = getelementptr inbounds [2 x %struct.dynbuf], ptr %7, i64 0, i64 1
  %153 = call ptr @Curl_dyn_ptr(ptr noundef %152)
  br label %155

154:                                              ; preds = %146
  br label %155

155:                                              ; preds = %154, %151
  %156 = phi ptr [ %153, %151 ], [ @.str.26, %154 ]
  call void (ptr, ptr, ...) @Curl_infof(ptr noundef %147, ptr noundef @.str.29, ptr noundef %156)
  br label %157

157:                                              ; preds = %155, %137, %134
  br label %158

158:                                              ; preds = %157
  br label %159

159:                                              ; preds = %158
  %160 = load ptr, ptr %3, align 8
  %161 = icmp ne ptr %160, null
  br i1 %161, label %162, label %182

162:                                              ; preds = %159
  %163 = load ptr, ptr %3, align 8
  %164 = getelementptr inbounds %struct.Curl_easy, ptr %163, i32 0, i32 16
  %165 = getelementptr inbounds %struct.UserDefined, ptr %164, i32 0, i32 122
  %166 = load i64, ptr %165, align 2
  %167 = lshr i64 %166, 28
  %168 = and i64 %167, 1
  %169 = trunc i64 %168 to i32
  %170 = icmp ne i32 %169, 0
  br i1 %170, label %171, label %182

171:                                              ; preds = %162
  %172 = load ptr, ptr %3, align 8
  %173 = getelementptr inbounds [2 x %struct.dynbuf], ptr %7, i64 0, i64 0
  %174 = call i64 @Curl_dyn_len(ptr noundef %173)
  %175 = icmp ne i64 %174, 0
  br i1 %175, label %176, label %179

176:                                              ; preds = %171
  %177 = getelementptr inbounds [2 x %struct.dynbuf], ptr %7, i64 0, i64 0
  %178 = call ptr @Curl_dyn_ptr(ptr noundef %177)
  br label %180

179:                                              ; preds = %171
  br label %180

180:                                              ; preds = %179, %176
  %181 = phi ptr [ %178, %176 ], [ @.str.26, %179 ]
  call void (ptr, ptr, ...) @Curl_infof(ptr noundef %172, ptr noundef @.str.30, ptr noundef %181)
  br label %182

182:                                              ; preds = %180, %162, %159
  br label %183

183:                                              ; preds = %182
  br label %184

184:                                              ; preds = %183, %127
  %185 = getelementptr inbounds [2 x %struct.dynbuf], ptr %7, i64 0, i64 0
  call void @Curl_dyn_free(ptr noundef %185)
  %186 = getelementptr inbounds [2 x %struct.dynbuf], ptr %7, i64 0, i64 1
  call void @Curl_dyn_free(ptr noundef %186)
  br label %187

187:                                              ; preds = %184, %33
  ret void
}