; Function Attrs: nounwind uwtable
define internal fastcc void @show_resolve_info(ptr noundef %0, ptr noundef nonnull %1) unnamed_addr #0 {
  %3 = alloca %struct.in_addr, align 4
  %4 = alloca %struct.in6_addr, align 4
  %5 = alloca [2 x %struct.dynbuf], align 16
  %6 = alloca [46 x i8], align 16
  %7 = getelementptr inbounds nuw i8, ptr %0, i64 2642
  %8 = load i64, ptr %7, align 2
  %9 = and i64 %8, 268435456
  %.not = icmp eq i64 %9, 0
  br i1 %.not, label %67, label %10

10:                                               ; preds = %2
  %11 = getelementptr inbounds nuw i8, ptr %1, i64 28
  %12 = load i8, ptr %11, align 4
  %.not35 = icmp eq i8 %12, 0
  br i1 %.not35, label %67, label %13

13:                                               ; preds = %10
  call void @llvm.lifetime.start.p0(i64 4, ptr nonnull %3)
  call void @llvm.lifetime.start.p0(i64 16, ptr nonnull %4)
  %14 = call i32 @inet_pton(i32 noundef 2, ptr noundef nonnull %11, ptr noundef nonnull %3) #12
  %15 = icmp sgt i32 %14, 0
  br i1 %15, label %Curl_host_is_ipnum.exit.thread, label %Curl_host_is_ipnum.exit

Curl_host_is_ipnum.exit.thread:                   ; preds = %13
  call void @llvm.lifetime.end.p0(i64 4, ptr nonnull %3)
  call void @llvm.lifetime.end.p0(i64 16, ptr nonnull %4)
  br label %67

Curl_host_is_ipnum.exit:                          ; preds = %13
  %16 = call i32 @inet_pton(i32 noundef 10, ptr noundef nonnull %11, ptr noundef nonnull %4) #12
  %17 = icmp sgt i32 %16, 0
  call void @llvm.lifetime.end.p0(i64 4, ptr nonnull %3)
  call void @llvm.lifetime.end.p0(i64 16, ptr nonnull %4)
  br i1 %17, label %67, label %18

18:                                               ; preds = %Curl_host_is_ipnum.exit
  %19 = load ptr, ptr %1, align 8
  %20 = load i64, ptr %7, align 2
  %21 = and i64 %20, 268435456
  %.not37 = icmp eq i64 %21, 0
  br i1 %.not37, label %27, label %22

22:                                               ; preds = %18
  %23 = load i8, ptr %11, align 4
  %.not38 = icmp eq i8 %23, 0
  %24 = select i1 %.not38, ptr @.str.26, ptr %11
  %25 = getelementptr inbounds nuw i8, ptr %1, i64 24
  %26 = load i32, ptr %25, align 8
  call void (ptr, ptr, ...) @Curl_infof(ptr noundef nonnull %0, ptr noundef nonnull @.str.25, ptr noundef nonnull %24, i32 noundef %26) #12
  br label %27

27:                                               ; preds = %18, %22
  call void @Curl_dyn_init(ptr noundef nonnull %5, i64 noundef 1024) #12
  %28 = getelementptr inbounds nuw i8, ptr %5, i64 32
  call void @Curl_dyn_init(ptr noundef nonnull %28, i64 noundef 1024) #12
  %.not3953 = icmp eq ptr %19, null
  br i1 %.not3953, label %._crit_edge, label %.lr.ph

.lr.ph:                                           ; preds = %27, %49
  %.054 = phi ptr [ %51, %49 ], [ %19, %27 ]
  %29 = getelementptr inbounds nuw i8, ptr %.054, i64 4
  %30 = load i32, ptr %29, align 4
  switch i32 %30, label %49 [
    i32 10, label %31
    i32 2, label %31
  ]

31:                                               ; preds = %.lr.ph, %.lr.ph
  %32 = icmp ne i32 %30, 2
  %33 = zext i1 %32 to i64
  %34 = getelementptr inbounds nuw [2 x %struct.dynbuf], ptr %5, i64 0, i64 %33
  store i8 0, ptr %6, align 16
  switch i32 %30, label %Curl_printable_address.exit [
    i32 2, label %.sink.split.i
    i32 10, label %35
  ]

35:                                               ; preds = %31
  br label %.sink.split.i

.sink.split.i:                                    ; preds = %35, %31
  %.sink16.i = phi i64 [ 8, %35 ], [ 4, %31 ]
  %36 = getelementptr inbounds nuw i8, ptr %.054, i64 32
  %37 = load ptr, ptr %36, align 8
  %38 = getelementptr inbounds nuw i8, ptr %37, i64 %.sink16.i
  %39 = call ptr @inet_ntop(i32 noundef %30, ptr noundef nonnull %38, ptr noundef nonnull %6, i32 noundef 46) #12
  br label %Curl_printable_address.exit

Curl_printable_address.exit:                      ; preds = %31, %.sink.split.i
  %40 = call i64 @Curl_dyn_len(ptr noundef nonnull %34) #12
  %.not44 = icmp eq i64 %40, 0
  br i1 %.not44, label %.critedge, label %41

41:                                               ; preds = %Curl_printable_address.exit
  %42 = call i32 @Curl_dyn_addn(ptr noundef nonnull %34, ptr noundef nonnull @.str.27, i64 noundef 2) #12
  %43 = icmp eq i32 %42, 0
  br i1 %43, label %.critedge, label %.critedge49

.critedge:                                        ; preds = %Curl_printable_address.exit, %41
  %44 = call i32 @Curl_dyn_add(ptr noundef nonnull %34, ptr noundef nonnull %6) #12
  %45 = icmp eq i32 %44, 0
  br i1 %45, label %49, label %.critedge49

.critedge49:                                      ; preds = %.critedge, %41
  %46 = load i64, ptr %7, align 2
  %47 = and i64 %46, 268435456
  %.not47 = icmp eq i64 %47, 0
  br i1 %.not47, label %.critedge51, label %48

48:                                               ; preds = %.critedge49
  call void (ptr, ptr, ...) @Curl_infof(ptr noundef nonnull %0, ptr noundef nonnull @.str.28) #12
  br label %.critedge51

49:                                               ; preds = %.lr.ph, %.critedge
  %50 = getelementptr inbounds nuw i8, ptr %.054, i64 40
  %51 = load ptr, ptr %50, align 8
  %.not39 = icmp eq ptr %51, null
  br i1 %.not39, label %._crit_edge, label %.lr.ph, !llvm.loop !13

._crit_edge:                                      ; preds = %49, %27
  %52 = load i64, ptr %7, align 2
  %53 = and i64 %52, 268435456
  %.not40 = icmp eq i64 %53, 0
  br i1 %.not40, label %.critedge51, label %54

54:                                               ; preds = %._crit_edge
  %55 = call i64 @Curl_dyn_len(ptr noundef nonnull %28) #12
  %.not41 = icmp eq i64 %55, 0
  br i1 %.not41, label %58, label %56

56:                                               ; preds = %54
  %57 = call ptr @Curl_dyn_ptr(ptr noundef nonnull %28) #12
  br label %58

58:                                               ; preds = %56, %54
  %59 = phi ptr [ %57, %56 ], [ @.str.26, %54 ]
  call void (ptr, ptr, ...) @Curl_infof(ptr noundef nonnull %0, ptr noundef nonnull @.str.29, ptr noundef %59) #12
  %.pre = load i64, ptr %7, align 2
  %.pre56 = and i64 %.pre, 268435456
  %60 = icmp eq i64 %.pre56, 0
  br i1 %60, label %.critedge51, label %61

61:                                               ; preds = %58
  %62 = call i64 @Curl_dyn_len(ptr noundef nonnull %5) #12
  %.not43 = icmp eq i64 %62, 0
  br i1 %.not43, label %65, label %63

63:                                               ; preds = %61
  %64 = call ptr @Curl_dyn_ptr(ptr noundef nonnull %5) #12
  br label %65

65:                                               ; preds = %61, %63
  %66 = phi ptr [ %64, %63 ], [ @.str.26, %61 ]
  call void (ptr, ptr, ...) @Curl_infof(ptr noundef nonnull %0, ptr noundef nonnull @.str.30, ptr noundef %66) #12
  br label %.critedge51

.critedge51:                                      ; preds = %._crit_edge, %65, %58, %48, %.critedge49
  call void @Curl_dyn_free(ptr noundef nonnull %5) #12
  call void @Curl_dyn_free(ptr noundef nonnull %28) #12
  br label %67

67:                                               ; preds = %Curl_host_is_ipnum.exit.thread, %2, %10, %Curl_host_is_ipnum.exit, %.critedge51
  ret void
}